target datalayout = "e-m:e-p270:32:32-p271:32:32-p272:64:64-i64:64-i128:128-f80:128-n8:16:32:64-S128"
target triple = "x86_64-pc-linux-gnu"

%struct.strbuf = type { i64, i64, ptr }
%struct.strvec = type { ptr, i64, i64 }
%struct.pathspec = type { i32, i8, i32, i32, ptr }
%struct.object_id = type { [32 x i8], i32 }
%struct.string_list = type { ptr, i64, i64, i8, ptr }
%struct.rev_info = type { ptr, %struct.object_array, ptr, %struct.object_array, %struct.rev_cmdline_info, %struct.list_objects_filter_options, %struct.ref_exclusions, ptr, ptr, ptr, %struct.pathspec, i32, i32, i32, i32, i64, i32, i32, %struct.date_mode, i32, i32, i32, i32, ptr, i32, i32, ptr, ptr, i32, ptr, ptr, %struct.ident_split, ptr, i32, ptr, ptr, ptr, i32, i32, i32, ptr, %struct.grep_opt, ptr, i32, i32, i64, i64, i64, i32, i32, ptr, ptr, ptr, %struct.diff_options, %struct.diff_options, ptr, %struct.decoration, %struct.decoration, %struct.decoration, %struct.display_notes_opt, ptr, ptr, ptr, ptr, ptr, i32, ptr, i32, i32, i32, %struct.decoration, ptr, ptr, ptr, ptr, ptr, ptr, ptr, i32, ptr, i32, ptr, %struct.oidset }
%struct.object_array = type { i32, i32, ptr }
%struct.rev_cmdline_info = type { i32, i32, ptr }
%struct.list_objects_filter_options = type { %struct.strbuf, i32, i8, ptr, i64, i64, i32, i64, i64, ptr }
%struct.ref_exclusions = type { %struct.string_list, %struct.strvec, i8 }
%struct.date_mode = type { i32, i32, ptr }
%struct.ident_split = type { ptr, ptr, ptr, ptr, ptr, ptr, ptr, ptr }
%struct.grep_opt = type { ptr, ptr, ptr, ptr, ptr, ptr, i32, i32, i32, i32, i32, i32, i32, i32, i32, i32, i32, i32, i32, i32, i32, i32, i32, i32, i32, i32, i32, i32, i32, i32, i32, i32, [9 x [75 x i8]], i32, i32, i32, i32, i32, i32, i32, ptr, ptr, ptr }
%struct.diff_options = type { ptr, ptr, i32, i32, ptr, i32, ptr, i64, i64, ptr, ptr, ptr, ptr, %struct.diff_flags, i32, i32, i32, i32, i32, i32, i32, i32, i32, i32, i32, i32, i32, i32, i32, i32, i32, i32, i32, i32, i32, i32, ptr, i32, ptr, i32, i32, ptr, i64, i64, i32, i32, i32, i32, ptr, i32, i32, ptr, i32, i32, ptr, ptr, i32, [3 x i8], %struct.pathspec, ptr, ptr, ptr, ptr, ptr, ptr, ptr, ptr, i32, ptr, i32, i32, ptr, ptr, i32 }
%struct.diff_flags = type { i32, i32, i32, i32, i32, i32, i32, i32, i32, i32, i32, i32, i32, i32, i32, i32, i32, i32, i32, i32, i32, i32, i32, i32, i32, i32, i32, i32, i32, i32, i32, i32, i32, i32, i32 }
%struct.display_notes_opt = type { i32, %struct.string_list }
%struct.decoration = type { ptr, i32, i32, ptr }
%struct.oidset = type { %struct.kh_oid_set }
%struct.kh_oid_set = type { i32, i32, i32, i32, ptr, ptr, ptr }
%struct.repository = type { ptr, ptr, ptr, ptr, ptr, %struct.strmap, %struct.strmap, %struct.repo_path_cache, ptr, ptr, ptr, ptr, %struct.repo_settings, ptr, ptr, ptr, ptr, ptr, ptr, i32, i32, i32, ptr, ptr, i32, i32, i8 }
%struct.strmap = type { %struct.hashmap, ptr, i8 }
%struct.hashmap = type { ptr, ptr, ptr, i32, i32, i32, i32, i8 }
%struct.repo_path_cache = type { ptr, ptr, ptr, ptr, ptr, ptr, ptr }
%struct.repo_settings = type { i32, i32, i32, i32, i32, i32, i32, i32, i32, i32, i32, i32, ptr, i32, i32, i32, i32, i32, i32, i32, i64, i64, i64 }
%struct.object = type { i32, %struct.object_id }
%struct.git_hash_algo = type { ptr, i32, i64, i64, i64, ptr, ptr, ptr, ptr, ptr, ptr, ptr, ptr, ptr }
%struct.tree = type { %struct.object, ptr, i64 }

@the_repository = external global ptr, align 8
@.str.29 = private unnamed_addr constant [1 x i8] zeroinitializer, align 1

; Function Attrs: nounwind uwtable
define dso_local i32 @has_uncommitted_changes(ptr noundef %0, i32 noundef %1) #0 {
  %3 = alloca i32, align 4
  %4 = alloca ptr, align 8
  %5 = alloca i32, align 4
  %6 = alloca %struct.rev_info, align 8
  %7 = alloca i32, align 4
  %8 = alloca i32, align 4
  %9 = alloca ptr, align 8
  store ptr %0, ptr %4, align 8, !tbaa !33
  store i32 %1, ptr %5, align 4, !tbaa !11
  call void @llvm.lifetime.start.p0(i64 3008, ptr %6) #12
  call void @llvm.lifetime.start.p0(i64 4, ptr %7) #12
  %10 = load ptr, ptr %4, align 8, !tbaa !33
  %11 = getelementptr inbounds nuw %struct.repository, ptr %10, i32 0, i32 15
  %12 = load ptr, ptr %11, align 8, !tbaa !103
  %13 = call i32 @is_index_unborn(ptr noundef %12)
  %14 = icmp ne i32 %13, 0
  br i1 %14, label %15, label %16

15:                                               ; preds = %2
  store i32 0, ptr %3, align 4
  store i32 1, ptr %8, align 4
  br label %46

16:                                               ; preds = %2
  %17 = load ptr, ptr %4, align 8, !tbaa !33
  call void @repo_init_revisions(ptr noundef %17, ptr noundef %6, ptr noundef null)
  %18 = load i32, ptr %5, align 4, !tbaa !11
  %19 = icmp ne i32 %18, 0
  br i1 %19, label %20, label %24

20:                                               ; preds = %16
  %21 = getelementptr inbounds nuw %struct.rev_info, ptr %6, i32 0, i32 53
  %22 = getelementptr inbounds nuw %struct.diff_options, ptr %21, i32 0, i32 13
  %23 = getelementptr inbounds nuw %struct.diff_flags, ptr %22, i32 0, i32 17
  store i32 1, ptr %23, align 4, !tbaa !237
  br label %24

24:                                               ; preds = %20, %16
  %25 = getelementptr inbounds nuw %struct.rev_info, ptr %6, i32 0, i32 53
  %26 = getelementptr inbounds nuw %struct.diff_options, ptr %25, i32 0, i32 13
  %27 = getelementptr inbounds nuw %struct.diff_flags, ptr %26, i32 0, i32 10
  store i32 1, ptr %27, align 8, !tbaa !238
  call void @add_head_to_pending(ptr noundef %6)
  %28 = getelementptr inbounds nuw %struct.rev_info, ptr %6, i32 0, i32 1
  %29 = getelementptr inbounds nuw %struct.object_array, ptr %28, i32 0, i32 0
  %30 = load i32, ptr %29, align 8, !tbaa !239
  %31 = icmp ne i32 %30, 0
  br i1 %31, label %42, label %32

32:                                               ; preds = %24
  call void @llvm.lifetime.start.p0(i64 8, ptr %9) #12
  %33 = load ptr, ptr %4, align 8, !tbaa !33
  %34 = load ptr, ptr @the_repository, align 8, !tbaa !33
  %35 = getelementptr inbounds nuw %struct.repository, ptr %34, i32 0, i32 17
  %36 = load ptr, ptr %35, align 8, !tbaa !149
  %37 = getelementptr inbounds nuw %struct.git_hash_algo, ptr %36, i32 0, i32 10
  %38 = load ptr, ptr %37, align 8, !tbaa !240
  %39 = call ptr @lookup_tree(ptr noundef %33, ptr noundef %38)
  store ptr %39, ptr %9, align 8, !tbaa !136
  %40 = load ptr, ptr %9, align 8, !tbaa !136
  %41 = getelementptr inbounds nuw %struct.tree, ptr %40, i32 0, i32 0
  call void @add_pending_object(ptr noundef %6, ptr noundef %41, ptr noundef @.str.29)
  call void @llvm.lifetime.end.p0(i64 8, ptr %9) #12
  br label %42

42:                                               ; preds = %32, %24
  %43 = getelementptr inbounds nuw %struct.rev_info, ptr %6, i32 0, i32 53
  call void @diff_setup_done(ptr noundef %43)
  call void @run_diff_index(ptr noundef %6, i32 noundef 1)
  %44 = call i32 @diff_result_code(ptr noundef %6)
  store i32 %44, ptr %7, align 4, !tbaa !11
  call void @release_revisions(ptr noundef %6)
  %45 = load i32, ptr %7, align 4, !tbaa !11
  store i32 %45, ptr %3, align 4
  store i32 1, ptr %8, align 4
  br label %46

46:                                               ; preds = %42, %15
  call void @llvm.lifetime.end.p0(i64 4, ptr %7) #12
  call void @llvm.lifetime.end.p0(i64 3008, ptr %6) #12
  %47 = load i32, ptr %3, align 4
  ret i32 %47
}