; Function Attrs: nounwind uwtable
define dso_local i32 @has_uncommitted_changes(ptr noundef %0, i32 noundef %1) local_unnamed_addr #0 {
  %3 = alloca %struct.rev_info, align 8
  call void @llvm.lifetime.start.p0(i64 3008, ptr nonnull %3) #20
  %4 = getelementptr inbounds nuw i8, ptr %0, i64 384
  %5 = load ptr, ptr %4, align 8, !tbaa !97
  %6 = tail call i32 @is_index_unborn(ptr noundef %5) #20
  %.not = icmp eq i32 %6, 0
  br i1 %.not, label %7, label %24

7:                                                ; preds = %2
  call void @repo_init_revisions(ptr noundef nonnull %0, ptr noundef nonnull %3, ptr noundef null) #20
  %.not6 = icmp eq i32 %1, 0
  br i1 %.not6, label %10, label %8

8:                                                ; preds = %7
  %9 = getelementptr inbounds nuw i8, ptr %3, i64 1636
  store i32 1, ptr %9, align 4, !tbaa !242
  br label %10

10:                                               ; preds = %8, %7
  %11 = getelementptr inbounds nuw i8, ptr %3, i64 1472
  %12 = getelementptr inbounds nuw i8, ptr %3, i64 1608
  store i32 1, ptr %12, align 8, !tbaa !243
  call void @add_head_to_pending(ptr noundef nonnull %3) #20
  %13 = getelementptr inbounds nuw i8, ptr %3, i64 8
  %14 = load i32, ptr %13, align 8, !tbaa !244
  %.not7 = icmp eq i32 %14, 0
  br i1 %.not7, label %15, label %22

15:                                               ; preds = %10
  %16 = load ptr, ptr @the_repository, align 8, !tbaa !33
  %17 = getelementptr inbounds nuw i8, ptr %16, i64 400
  %18 = load ptr, ptr %17, align 8, !tbaa !140
  %19 = getelementptr inbounds nuw i8, ptr %18, i64 80
  %20 = load ptr, ptr %19, align 8, !tbaa !245
  %21 = call ptr @lookup_tree(ptr noundef nonnull %0, ptr noundef %20) #20
  call void @add_pending_object(ptr noundef nonnull %3, ptr noundef %21, ptr noundef nonnull @.str.29) #20
  br label %22

22:                                               ; preds = %15, %10
  call void @diff_setup_done(ptr noundef nonnull %11) #20
  call void @run_diff_index(ptr noundef nonnull %3, i32 noundef 1) #20
  %23 = call i32 @diff_result_code(ptr noundef nonnull %3) #20
  call void @release_revisions(ptr noundef nonnull %3) #20
  br label %24

24:                                               ; preds = %2, %22
  %.0 = phi i32 [ %23, %22 ], [ 0, %2 ]
  call void @llvm.lifetime.end.p0(i64 3008, ptr nonnull %3) #20
  ret i32 %.0
}